; Function Attrs: mustprogress uwtable
define dso_local void @_ZN4absl18debugging_internal14DumpStackTraceEiibPFvPKcPvES3_(i32 noundef %min_dropped_frames, i32 noundef %max_num_frames, i1 noundef zeroext %symbolize_stacktrace, ptr noundef %writer, ptr noundef %writer_arg) local_unnamed_addr #3 {
entry:
  %buf.i22 = alloca [100 x i8], align 16
  %tmp.i = alloca [1024 x i8], align 16
  %buf.i = alloca [1024 x i8], align 16
  %stack_buf = alloca [64 x ptr], align 16
  %cmp = icmp slt i32 %max_num_frames, 65
  br i1 %cmp, label %if.end3, label %if.else

if.else:                                          ; preds = %entry
  %conv = zext nneg i32 %max_num_frames to i64
  %mul = shl nuw nsw i64 %conv, 3
  %call.i = tail call ptr @mmap(ptr noundef null, i64 noundef range(i64 520, 17179869177) %mul, i32 noundef 3, i32 noundef 34, i32 noundef -1, i64 noundef 0) #8
  %magicptr = ptrtoint ptr %call.i to i64
  switch i64 %magicptr, label %if.then2 [
    i64 -1, label %if.end3
    i64 0, label %if.end3
  ]

if.then2:                                         ; preds = %if.else
  br label %if.end3

if.end3:                                          ; preds = %if.else, %if.else, %entry, %if.then2
  %allocated_bytes.0 = phi i64 [ %mul, %if.then2 ], [ 0, %if.else ], [ 0, %entry ], [ 0, %if.else ]
  %num_stack.0 = phi i32 [ %max_num_frames, %if.then2 ], [ 64, %if.else ], [ %max_num_frames, %entry ], [ 64, %if.else ]
  %stack.0 = phi ptr [ %call.i, %if.then2 ], [ %stack_buf, %if.else ], [ %stack_buf, %entry ], [ %stack_buf, %if.else ]
  %add = add nsw i32 %min_dropped_frames, 1
  %call4 = call noundef i32 @_ZN4absl13GetStackTraceEPPvii(ptr noundef nonnull %stack.0, i32 noundef %num_stack.0, i32 noundef %add)
  %cmp526 = icmp sgt i32 %call4, 0
  br i1 %cmp526, label %for.body.lr.ph, label %for.end

for.body.lr.ph:                                   ; preds = %if.end3
  %wide.trip.count33 = zext nneg i32 %call4 to i64
  br i1 %symbolize_stacktrace, label %for.body.us, label %for.body

for.body.us:                                      ; preds = %for.body.lr.ph, %_ZN4absl18debugging_internal12_GLOBAL__N_115DumpPCAndSymbolEPFvPKcPvES4_S4_S3_.exit.us
  %indvars.iv30 = phi i64 [ %indvars.iv.next31, %_ZN4absl18debugging_internal12_GLOBAL__N_115DumpPCAndSymbolEPFvPKcPvES4_S4_S3_.exit.us ], [ 0, %for.body.lr.ph ]
  %arrayidx.us = getelementptr inbounds nuw ptr, ptr %stack.0, i64 %indvars.iv30
  %0 = load ptr, ptr %arrayidx.us, align 8
  call void @llvm.lifetime.start.p0(i64 1024, ptr nonnull %tmp.i)
  call void @llvm.lifetime.start.p0(i64 1024, ptr nonnull %buf.i)
  %1 = ptrtoint ptr %0 to i64
  %sub.i.us = add i64 %1, -1
  %2 = inttoptr i64 %sub.i.us to ptr
  %call.i21.us = call noundef zeroext i1 @_ZN4absl9SymbolizeEPKvPci(ptr noundef %2, ptr noundef nonnull %tmp.i, i32 noundef 1024)
  br i1 %call.i21.us, label %if.then.i.us, label %lor.lhs.false.i.us

lor.lhs.false.i.us:                               ; preds = %for.body.us
  %call2.i.us = call noundef zeroext i1 @_ZN4absl9SymbolizeEPKvPci(ptr noundef %0, ptr noundef nonnull %tmp.i, i32 noundef 1024)
  br i1 %call2.i.us, label %if.then.i.us, label %_ZN4absl18debugging_internal12_GLOBAL__N_115DumpPCAndSymbolEPFvPKcPvES4_S4_S3_.exit.us

if.then.i.us:                                     ; preds = %lor.lhs.false.i.us, %for.body.us
  br label %_ZN4absl18debugging_internal12_GLOBAL__N_115DumpPCAndSymbolEPFvPKcPvES4_S4_S3_.exit.us

_ZN4absl18debugging_internal12_GLOBAL__N_115DumpPCAndSymbolEPFvPKcPvES4_S4_S3_.exit.us: ; preds = %if.then.i.us, %lor.lhs.false.i.us
  %symbol.0.i.us = phi ptr [ %tmp.i, %if.then.i.us ], [ @.str.3, %lor.lhs.false.i.us ]
  %call5.i.us = call i32 (ptr, i64, ptr, ...) @snprintf(ptr noundef nonnull dereferenceable(1) %buf.i, i64 noundef 1024, ptr noundef nonnull @.str.8, ptr noundef nonnull @.str.1, i32 noundef 18, ptr noundef %0, ptr noundef nonnull %symbol.0.i.us) #8
  call void %writer(ptr noundef nonnull %buf.i, ptr noundef %writer_arg)
  call void @llvm.lifetime.end.p0(i64 1024, ptr nonnull %tmp.i)
  call void @llvm.lifetime.end.p0(i64 1024, ptr nonnull %buf.i)
  %indvars.iv.next31 = add nuw nsw i64 %indvars.iv30, 1
  %exitcond34.not = icmp eq i64 %indvars.iv.next31, %wide.trip.count33
  br i1 %exitcond34.not, label %for.end, label %for.body.us, !llvm.loop !7

for.body:                                         ; preds = %for.body.lr.ph, %for.body
  %indvars.iv = phi i64 [ %indvars.iv.next, %for.body ], [ 0, %for.body.lr.ph ]
  %arrayidx10 = getelementptr inbounds nuw ptr, ptr %stack.0, i64 %indvars.iv
  %3 = load ptr, ptr %arrayidx10, align 8
  call void @llvm.lifetime.start.p0(i64 100, ptr nonnull %buf.i22)
  %call.i23 = call i32 (ptr, i64, ptr, ...) @snprintf(ptr noundef nonnull dereferenceable(1) %buf.i22, i64 noundef 100, ptr noundef nonnull @.str.9, ptr noundef nonnull @.str.1, i32 noundef 18, ptr noundef %3) #8
  call void %writer(ptr noundef nonnull %buf.i22, ptr noundef %writer_arg)
  call void @llvm.lifetime.end.p0(i64 100, ptr nonnull %buf.i22)
  %indvars.iv.next = add nuw nsw i64 %indvars.iv, 1
  %exitcond.not = icmp eq i64 %indvars.iv.next, %wide.trip.count33
  br i1 %exitcond.not, label %for.end, label %for.body, !llvm.loop !7

for.end:                                          ; preds = %for.body, %_ZN4absl18debugging_internal12_GLOBAL__N_115DumpPCAndSymbolEPFvPKcPvES4_S4_S3_.exit.us, %if.end3
  %4 = load ptr, ptr @_ZN4absl18debugging_internal12_GLOBAL__N_122debug_stack_trace_hookE, align 8
  %cmp13.not = icmp eq ptr %4, null
  br i1 %cmp13.not, label %if.end15, label %if.then14

if.then14:                                        ; preds = %for.end
  call void %4(ptr noundef nonnull %stack.0, i32 noundef %call4, ptr noundef %writer, ptr noundef %writer_arg)
  br label %if.end15

if.end15:                                         ; preds = %if.then14, %for.end
  %cmp16.not = icmp eq i64 %allocated_bytes.0, 0
  br i1 %cmp16.not, label %if.end18, label %if.then17

if.then17:                                        ; preds = %if.end15
  %call.i24 = call i32 @munmap(ptr noundef nonnull %stack.0, i64 noundef range(i64 1, 17179869177) %allocated_bytes.0) #8
  br label %if.end18

if.end18:                                         ; preds = %if.then17, %if.end15
  ret void
}